issuer :/C=AU/ST=QLD/O=Mincom Pty. Ltd./OU=CS/CN=SSLeay demo server
subject:/C=AU/ST=QLD/O=Mincom Pty. Ltd./OU=CS/CN=SSLeay demo server
serial :011E

Certificate:
    Data:
        Version: 3 (0x2)
        Serial Number: 286 (0x11e)
        Signature Algorithm: md5WithRSAEncryption
        Issuer: C=AU, ST=QLD, O=Mincom Pty. Ltd., OU=CS, CN=SSLeay demo server
        Validity
            Not Before: Nov 15 01:17:58 2001 GMT
            Not After : Nov 15 01:17:58 2002 GMT
        Subject: C=AU, ST=QLD, O=Mincom Pty. Ltd., OU=CS, CN=SSLeay demo server
        Subject Public Key Info:
            Public Key Algorithm: rsaEncryption
            RSA Public Key: (512 bit)
                Modulus (512 bit):
                    00:bc:47:d0:eb:b9:e6:d6:0b:b0:c9:50:b6:95:aa:
                    ad:bf:78:49:5a:46:05:3d:e8:0b:0d:df:86:16:1a:
                    5b:fd:39:4e:26:b4:e1:28:0e:67:ad:f4:b3:98:69:
                    94:8b:1c:9f:ed:56:43:94:f8:91:3b:f4:9e:ae:9d:
                    6e:a0:be:47:ed
                Exponent: 65537 (0x10001)
        X509v3 extensions:
            X509v3 Basic Constraints: 
                CA:FALSE
            Netscape Comment: 
                OpenSSL Generated Certificate
            X509v3 Subject Key Identifier: 
                04:CC:59:9C:8F:13:F5:C7:80:41:9D:E5:53:D6:2B:F6:FD:20:70:FD
            X509v3 Authority Key Identifier: 
                DirName:/C=AU/ST=QLD/CN=SSLeay/rsa test CA
                serial:04

    Signature Algorithm: md5WithRSAEncryption
        62:17:28:36:9c:37:99:28:61:9e:17:b0:07:98:b5:12:c9:e7:
        75:01:82:e8:9d:3a:96:54:5b:a3:1a:82:c1:79:86:f1:76:72:
        5e:49:77:5a:8f:c0:71:08:b2:8c:a5:57:f5:c6:88:d5:62:c9:
        7e:6a:8b:7f:ef:a9:2f:be:de:60

-----BEGIN CERTIFICATE-----
MIIB/DCCAaagAwIBAgICAR4wDQYJKoZIhvcNAQEEBQAwYDELMAkGA1UEBhMCQVUx
DDAKBgNVBAgTA1FMRDEZMBcGA1UEChMQTWluY29tIFB0eS4gTHRkLjELMAkGA1UE
CxMCQ1MxGzAZBgNVBAMTElNTTGVheSBkZW1vIHNlcnZlcjAeFw0wMTExMTUwMTE3
NThaFw0wMjExMTUwMTE3NThaMAIAGDBcMA0GCSqGSIb3DQEBAQUAA0sAMEgCQQC8
R9DruebWC7DJULaVqq2/eElaRgU96AsN34YWGlv9OU4mtOEoDmet9LOYaZSLHJ/t
VkOU+JE79J6unW6gvkftAgMBAAGjgacwgaQwCQYDVR0TBAIwADAsBglghkgBhvhC
AQ0EHxYdT3BlblNTTCBHZW5lcmF0ZWQgQ2VydGlmaWNhdGUwHQYDVR0OBBYEFATM
WZyPE/XHgEGd5VPWK/b9IHD9MEoGA1UdIwRDMEGhPKQ6MDgxCzAJBgNVBAYTAkFV
MQwwCgYDVQQIEwNRTEQxGzAZBgNVBAMTElNTTGVheS9yc2EgdGVzdCBDQYIBBDAN
BgkqhkiG9w0BAQQFAANBAGIXKDacN5koYZ4XsAeYtRLJ53UBguidOpZUW6MagsF5
hvF2cl5Jd1qPwHEIsoylV/XGiNViyX5qi3/vqS++3mA=
-----END CERTIFICATE-----

